	.file	"reg9.c"
	.text
.Ltext0:
	.file 0 "/home/cccmmf/\346\223\215\344\275\234\347\263\273\347\273\237/\346\223\215\344\275\234\347\263\273\347\273\237\347\234\237\350\261\241\350\277\230\345\216\237/chap6/page292" "reg9.c"
	.section	.rodata
.LC0:
	.string	"sum is %d\n"
	.text
	.globl	main
	.type	main, @function
main:
.LFB0:
	.file 1 "reg9.c"
	.loc 1 3 16
	.cfi_startproc
	leal	4(%esp), %ecx
	.cfi_def_cfa 1, 0
	andl	$-16, %esp
	pushl	-4(%ecx)
	pushl	%ebp
	movl	%esp, %ebp
	.cfi_escape 0x10,0x5,0x2,0x75,0
	pushl	%ebx
	pushl	%ecx
	.cfi_escape 0xf,0x3,0x75,0x78,0x6
	.cfi_escape 0x10,0x3,0x2,0x75,0x7c
	subl	$16, %esp
	call	__x86.get_pc_thunk.dx
	addl	$_GLOBAL_OFFSET_TABLE_, %edx
	.loc 1 4 7
	movl	$1, -16(%ebp)		;in_a
	.loc 1 4 17
	movl	$0, -12(%ebp)		;sum
	.loc 1 11 3
	movl	-16(%ebp), %eax	;in_a写入eax
#APP
# 11 "reg9.c" 1
	addl $2, %eax;				;$2对应input中的"%I"(2)
# 0 "" 2
#NO_APP
	movl	%eax, -12(%ebp)	;由于"=a"(sum)决定将eax存入sum
	.loc 1 12 3
	subl	$8, %esp
	pushl	-12(%ebp)
	leal	.LC0@GOTOFF(%edx), %eax
	pushl	%eax
	movl	%edx, %ebx
	call	printf@PLT
	addl	$16, %esp
	.loc 1 13 10
	movl	$0, %eax
	.loc 1 14 1
	leal	-8(%ebp), %esp
	popl	%ecx
	.cfi_restore 1
	.cfi_def_cfa 1, 0
	popl	%ebx
	.cfi_restore 3
	popl	%ebp
	.cfi_restore 5
	leal	-4(%ecx), %esp
	.cfi_def_cfa 4, 4
	ret
	.cfi_endproc
.LFE0:
	.size	main, .-main
	.section	.text.__x86.get_pc_thunk.dx,"axG",@progbits,__x86.get_pc_thunk.dx,comdat
	.globl	__x86.get_pc_thunk.dx
	.hidden	__x86.get_pc_thunk.dx
	.type	__x86.get_pc_thunk.dx, @function
__x86.get_pc_thunk.dx:
.LFB1:
	.cfi_startproc
	movl	(%esp), %edx
	ret
	.cfi_endproc
.LFE1:
	.text
.Letext0:
	.file 2 "/usr/include/stdio.h"
	.section	.note.GNU-stack,"",@progbits
